; Function Attrs: nounwind uwtable
define ptr @l_Lean_Loop_forIn_loop___at_Std_Condvar_waitUntil___spec__1___rarg___lambda__3(ptr noundef %0, ptr noundef %1, ptr noundef %2, ptr noundef %3, ptr noundef %4, ptr noundef %5, ptr noundef %6) #0 {
  %8 = ptrtoint ptr %6 to i64
  %9 = and i64 %8, 1
  %.not.i61 = icmp eq i64 %9, 0
  br i1 %.not.i61, label %13, label %10

10:                                               ; preds = %7
  %11 = lshr i64 %8, 1
  %12 = trunc i64 %11 to i32
  br label %lean_obj_tag.exit

13:                                               ; preds = %7
  %14 = getelementptr i8, ptr %6, i64 4
  %.val.i = load i32, ptr %14, align 4
  %15 = lshr i32 %.val.i, 24
  br label %lean_obj_tag.exit

lean_obj_tag.exit:                                ; preds = %10, %13
  %.0.i = phi i32 [ %12, %10 ], [ %15, %13 ]
  %16 = icmp eq i32 %.0.i, 0
  br i1 %16, label %17, label %117

17:                                               ; preds = %lean_obj_tag.exit
  %18 = ptrtoint ptr %5 to i64
  %19 = and i64 %18, 1
  %.not74 = icmp eq i64 %19, 0
  br i1 %.not74, label %20, label %lean_dec.exit39

20:                                               ; preds = %17
  %21 = load i32, ptr %5, align 4, !tbaa !4
  %22 = icmp sgt i32 %21, 1
  br i1 %22, label %23, label %25, !prof !9

23:                                               ; preds = %20
  %24 = add nsw i32 %21, -1
  store i32 %24, ptr %5, align 4, !tbaa !4
  br label %lean_dec.exit39

25:                                               ; preds = %20
  %.not.i = icmp eq i32 %21, 0
  br i1 %.not.i, label %lean_dec.exit39, label %26

26:                                               ; preds = %25
  tail call void @lean_dec_ref_cold(ptr noundef nonnull %5) #3
  br label %lean_dec.exit39

lean_dec.exit39:                                  ; preds = %26, %25, %23, %17
  %27 = ptrtoint ptr %4 to i64
  %28 = and i64 %27, 1
  %.not75 = icmp eq i64 %28, 0
  br i1 %.not75, label %29, label %lean_dec.exit38

29:                                               ; preds = %lean_dec.exit39
  %30 = load i32, ptr %4, align 4, !tbaa !4
  %31 = icmp sgt i32 %30, 1
  br i1 %31, label %32, label %34, !prof !9

32:                                               ; preds = %29
  %33 = add nsw i32 %30, -1
  store i32 %33, ptr %4, align 4, !tbaa !4
  br label %lean_dec.exit38

34:                                               ; preds = %29
  %.not.i43 = icmp eq i32 %30, 0
  br i1 %.not.i43, label %lean_dec.exit38, label %35

35:                                               ; preds = %34
  tail call void @lean_dec_ref_cold(ptr noundef nonnull %4) #3
  br label %lean_dec.exit38

lean_dec.exit38:                                  ; preds = %35, %34, %32, %lean_dec.exit39
  %36 = ptrtoint ptr %3 to i64
  %37 = and i64 %36, 1
  %.not76 = icmp eq i64 %37, 0
  br i1 %.not76, label %38, label %lean_dec.exit37

38:                                               ; preds = %lean_dec.exit38
  %39 = load i32, ptr %3, align 4, !tbaa !4
  %40 = icmp sgt i32 %39, 1
  br i1 %40, label %41, label %43, !prof !9

41:                                               ; preds = %38
  %42 = add nsw i32 %39, -1
  store i32 %42, ptr %3, align 4, !tbaa !4
  br label %lean_dec.exit37

43:                                               ; preds = %38
  %.not.i45 = icmp eq i32 %39, 0
  br i1 %.not.i45, label %lean_dec.exit37, label %44

44:                                               ; preds = %43
  tail call void @lean_dec_ref_cold(ptr noundef nonnull %3) #3
  br label %lean_dec.exit37

lean_dec.exit37:                                  ; preds = %44, %43, %41, %lean_dec.exit38
  %45 = ptrtoint ptr %2 to i64
  %46 = and i64 %45, 1
  %.not77 = icmp eq i64 %46, 0
  br i1 %.not77, label %47, label %lean_dec.exit36

47:                                               ; preds = %lean_dec.exit37
  %48 = load i32, ptr %2, align 4, !tbaa !4
  %49 = icmp sgt i32 %48, 1
  br i1 %49, label %50, label %52, !prof !9

50:                                               ; preds = %47
  %51 = add nsw i32 %48, -1
  store i32 %51, ptr %2, align 4, !tbaa !4
  br label %lean_dec.exit36

52:                                               ; preds = %47
  %.not.i47 = icmp eq i32 %48, 0
  br i1 %.not.i47, label %lean_dec.exit36, label %53

53:                                               ; preds = %52
  tail call void @lean_dec_ref_cold(ptr noundef nonnull %2) #3
  br label %lean_dec.exit36

lean_dec.exit36:                                  ; preds = %53, %52, %50, %lean_dec.exit37
  %54 = ptrtoint ptr %1 to i64
  %55 = and i64 %54, 1
  %.not78 = icmp eq i64 %55, 0
  br i1 %.not78, label %56, label %lean_dec.exit35

56:                                               ; preds = %lean_dec.exit36
  %57 = load i32, ptr %1, align 4, !tbaa !4
  %58 = icmp sgt i32 %57, 1
  br i1 %58, label %59, label %61, !prof !9

59:                                               ; preds = %56
  %60 = add nsw i32 %57, -1
  store i32 %60, ptr %1, align 4, !tbaa !4
  br label %lean_dec.exit35

61:                                               ; preds = %56
  %.not.i49 = icmp eq i32 %57, 0
  br i1 %.not.i49, label %lean_dec.exit35, label %62

62:                                               ; preds = %61
  tail call void @lean_dec_ref_cold(ptr noundef nonnull %1) #3
  br label %lean_dec.exit35

lean_dec.exit35:                                  ; preds = %62, %61, %59, %lean_dec.exit36
  %63 = getelementptr inbounds nuw i8, ptr %6, i64 8
  %64 = load ptr, ptr %63, align 8, !tbaa !10
  %65 = ptrtoint ptr %64 to i64
  %66 = and i64 %65, 1
  %.not79 = icmp eq i64 %66, 0
  br i1 %.not79, label %67, label %lean_inc.exit42

67:                                               ; preds = %lean_dec.exit35
  %.val.i62 = load i32, ptr %64, align 4, !tbaa !4
  %68 = icmp sgt i32 %.val.i62, 0
  br i1 %68, label %69, label %71, !prof !9

69:                                               ; preds = %67
  %70 = add nuw i32 %.val.i62, 1
  store i32 %70, ptr %64, align 4, !tbaa !4
  br label %lean_inc.exit42

71:                                               ; preds = %67
  %.not.i63 = icmp eq i32 %.val.i62, 0
  br i1 %.not.i63, label %lean_inc.exit42, label %72

72:                                               ; preds = %71
  tail call void @lean_inc_ref_cold(ptr noundef nonnull %64) #3
  br label %lean_inc.exit42

lean_inc.exit42:                                  ; preds = %72, %71, %69, %lean_dec.exit35
  br i1 %.not.i61, label %73, label %lean_dec.exit34

73:                                               ; preds = %lean_inc.exit42
  %74 = load i32, ptr %6, align 4, !tbaa !4
  %75 = icmp sgt i32 %74, 1
  br i1 %75, label %76, label %78, !prof !9

76:                                               ; preds = %73
  %77 = add nsw i32 %74, -1
  store i32 %77, ptr %6, align 4, !tbaa !4
  br label %lean_dec.exit34

78:                                               ; preds = %73
  %.not.i51 = icmp eq i32 %74, 0
  br i1 %.not.i51, label %lean_dec.exit34, label %79

79:                                               ; preds = %78
  tail call void @lean_dec_ref_cold(ptr noundef nonnull %6) #3
  br label %lean_dec.exit34

lean_dec.exit34:                                  ; preds = %79, %78, %76, %lean_inc.exit42
  %80 = getelementptr inbounds nuw i8, ptr %0, i64 8
  %81 = load ptr, ptr %80, align 8, !tbaa !10
  %82 = ptrtoint ptr %81 to i64
  %83 = and i64 %82, 1
  %.not81 = icmp eq i64 %83, 0
  br i1 %.not81, label %84, label %lean_inc.exit41

84:                                               ; preds = %lean_dec.exit34
  %.val.i64 = load i32, ptr %81, align 4, !tbaa !4
  %85 = icmp sgt i32 %.val.i64, 0
  br i1 %85, label %86, label %88, !prof !9

86:                                               ; preds = %84
  %87 = add nuw i32 %.val.i64, 1
  store i32 %87, ptr %81, align 4, !tbaa !4
  br label %lean_inc.exit41

88:                                               ; preds = %84
  %.not.i65 = icmp eq i32 %.val.i64, 0
  br i1 %.not.i65, label %lean_inc.exit41, label %89

89:                                               ; preds = %88
  tail call void @lean_inc_ref_cold(ptr noundef nonnull %81) #3
  br label %lean_inc.exit41

lean_inc.exit41:                                  ; preds = %89, %88, %86, %lean_dec.exit34
  %90 = ptrtoint ptr %0 to i64
  %91 = and i64 %90, 1
  %.not82 = icmp eq i64 %91, 0
  br i1 %.not82, label %92, label %lean_dec.exit33

92:                                               ; preds = %lean_inc.exit41
  %93 = load i32, ptr %0, align 4, !tbaa !4
  %94 = icmp sgt i32 %93, 1
  br i1 %94, label %95, label %97, !prof !9

95:                                               ; preds = %92
  %96 = add nsw i32 %93, -1
  store i32 %96, ptr %0, align 4, !tbaa !4
  br label %lean_dec.exit33

97:                                               ; preds = %92
  %.not.i53 = icmp eq i32 %93, 0
  br i1 %.not.i53, label %lean_dec.exit33, label %98

98:                                               ; preds = %97
  tail call void @lean_dec_ref_cold(ptr noundef nonnull %0) #3
  br label %lean_dec.exit33

lean_dec.exit33:                                  ; preds = %98, %97, %95, %lean_inc.exit41
  %99 = getelementptr inbounds nuw i8, ptr %81, i64 16
  %100 = load ptr, ptr %99, align 8, !tbaa !10
  %101 = ptrtoint ptr %100 to i64
  %102 = and i64 %101, 1
  %.not83 = icmp eq i64 %102, 0
  br i1 %.not83, label %103, label %lean_inc.exit40

103:                                              ; preds = %lean_dec.exit33
  %.val.i67 = load i32, ptr %100, align 4, !tbaa !4
  %104 = icmp sgt i32 %.val.i67, 0
  br i1 %104, label %105, label %107, !prof !9

105:                                              ; preds = %103
  %106 = add nuw i32 %.val.i67, 1
  store i32 %106, ptr %100, align 4, !tbaa !4
  br label %lean_inc.exit40

107:                                              ; preds = %103
  %.not.i68 = icmp eq i32 %.val.i67, 0
  br i1 %.not.i68, label %lean_inc.exit40, label %108

108:                                              ; preds = %107
  tail call void @lean_inc_ref_cold(ptr noundef nonnull %100) #3
  br label %lean_inc.exit40

lean_inc.exit40:                                  ; preds = %108, %107, %105, %lean_dec.exit33
  br i1 %.not81, label %109, label %lean_dec.exit32

109:                                              ; preds = %lean_inc.exit40
  %110 = load i32, ptr %81, align 4, !tbaa !4
  %111 = icmp sgt i32 %110, 1
  br i1 %111, label %112, label %114, !prof !9

112:                                              ; preds = %109
  %113 = add nsw i32 %110, -1
  store i32 %113, ptr %81, align 4, !tbaa !4
  br label %lean_dec.exit32

114:                                              ; preds = %109
  %.not.i55 = icmp eq i32 %110, 0
  br i1 %.not.i55, label %lean_dec.exit32, label %115

115:                                              ; preds = %114
  tail call void @lean_dec_ref_cold(ptr noundef nonnull %81) #3
  br label %lean_dec.exit32

lean_dec.exit32:                                  ; preds = %115, %114, %112, %lean_inc.exit40
  %116 = tail call ptr @lean_apply_2(ptr noundef %100, ptr noundef nonnull inttoptr (i64 1 to ptr), ptr noundef %64) #3
  br label %lean_dec.exit

117:                                              ; preds = %lean_obj_tag.exit
  %118 = getelementptr inbounds nuw i8, ptr %6, i64 8
  %119 = load ptr, ptr %118, align 8, !tbaa !10
  %120 = ptrtoint ptr %119 to i64
  %121 = and i64 %120, 1
  %.not = icmp eq i64 %121, 0
  br i1 %.not, label %122, label %lean_inc.exit

122:                                              ; preds = %117
  %.val.i70 = load i32, ptr %119, align 4, !tbaa !4
  %123 = icmp sgt i32 %.val.i70, 0
  br i1 %123, label %124, label %126, !prof !9

124:                                              ; preds = %122
  %125 = add nuw i32 %.val.i70, 1
  store i32 %125, ptr %119, align 4, !tbaa !4
  br label %lean_inc.exit

126:                                              ; preds = %122
  %.not.i71 = icmp eq i32 %.val.i70, 0
  br i1 %.not.i71, label %lean_inc.exit, label %127

127:                                              ; preds = %126
  tail call void @lean_inc_ref_cold(ptr noundef nonnull %119) #3
  br label %lean_inc.exit

lean_inc.exit:                                    ; preds = %127, %126, %124, %117
  br i1 %.not.i61, label %128, label %lean_dec.exit31

128:                                              ; preds = %lean_inc.exit
  %129 = load i32, ptr %6, align 4, !tbaa !4
  %130 = icmp sgt i32 %129, 1
  br i1 %130, label %131, label %133, !prof !9

131:                                              ; preds = %128
  %132 = add nsw i32 %129, -1
  store i32 %132, ptr %6, align 4, !tbaa !4
  br label %lean_dec.exit31

133:                                              ; preds = %128
  %.not.i57 = icmp eq i32 %129, 0
  br i1 %.not.i57, label %lean_dec.exit31, label %134

134:                                              ; preds = %133
  tail call void @lean_dec_ref_cold(ptr noundef nonnull %6) #3
  br label %lean_dec.exit31

lean_dec.exit31:                                  ; preds = %134, %133, %131, %lean_inc.exit
  %135 = tail call ptr @l_Lean_Loop_forIn_loop___at_Std_Condvar_waitUntil___spec__1___rarg(ptr noundef %0, ptr noundef %1, ptr noundef %2, ptr noundef %3, ptr noundef %4, ptr noundef %5, ptr poison)
  br i1 %.not, label %136, label %lean_dec.exit

136:                                              ; preds = %lean_dec.exit31
  %137 = load i32, ptr %119, align 4, !tbaa !4
  %138 = icmp sgt i32 %137, 1
  br i1 %138, label %139, label %141, !prof !9

139:                                              ; preds = %136
  %140 = add nsw i32 %137, -1
  store i32 %140, ptr %119, align 4, !tbaa !4
  br label %lean_dec.exit

141:                                              ; preds = %136
  %.not.i59 = icmp eq i32 %137, 0
  br i1 %.not.i59, label %lean_dec.exit, label %142

142:                                              ; preds = %141
  tail call void @lean_dec_ref_cold(ptr noundef nonnull %119) #3
  br label %lean_dec.exit

lean_dec.exit:                                    ; preds = %lean_dec.exit31, %139, %141, %142, %lean_dec.exit32
  %.0 = phi ptr [ %116, %lean_dec.exit32 ], [ %135, %142 ], [ %135, %141 ], [ %135, %139 ], [ %135, %lean_dec.exit31 ]
  ret ptr %.0
}